target datalayout = "e-m:e-p270:32:32-p271:32:32-p272:64:64-i64:64-i128:128-f80:128-n8:16:32:64-S128"
target triple = "x86_64-pc-linux-gnu"

; Function Attrs: nounwind uwtable
define void @swap_ij_case1(ptr noundef %0, i32 noundef %1, i32 noundef %2, i32 noundef %3) #0 {
  %5 = alloca ptr, align 8
  %6 = alloca i32, align 4
  %7 = alloca i32, align 4
  %8 = alloca i32, align 4
  %9 = alloca i32, align 4
  %10 = alloca i32, align 4
  %11 = alloca i32, align 4
  %12 = alloca i32, align 4
  %13 = alloca [45 x i64], align 16
  store ptr %0, ptr %5, align 8, !tbaa !3
  store i32 %1, ptr %6, align 4, !tbaa !8
  store i32 %2, ptr %7, align 4, !tbaa !8
  store i32 %3, ptr %8, align 4, !tbaa !8
  call void @llvm.lifetime.start.p0(i64 4, ptr %9) #6
  call void @llvm.lifetime.start.p0(i64 4, ptr %10) #6
  call void @llvm.lifetime.start.p0(i64 4, ptr %11) #6
  call void @llvm.lifetime.start.p0(i64 4, ptr %12) #6
  call void @llvm.lifetime.start.p0(i64 360, ptr %13) #6
  call void @llvm.memcpy.p0.p0.i64(ptr align 16 %13, ptr align 16 @__const.swap_ij_case1.maskArray, i64 360, i1 false)
  %14 = load i32, ptr %7, align 4, !tbaa !8
  %15 = mul nsw i32 9, %14
  %16 = load i32, ptr %7, align 4, !tbaa !8
  %17 = load i32, ptr %7, align 4, !tbaa !8
  %18 = mul nsw i32 %16, %17
  %19 = sub nsw i32 %15, %18
  %20 = sub nsw i32 %19, 2
  %21 = sdiv i32 %20, 2
  %22 = load i32, ptr %8, align 4, !tbaa !8
  %23 = add nsw i32 %21, %22
  %24 = mul nsw i32 3, %23
  store i32 %24, ptr %9, align 4, !tbaa !8
  %25 = load i32, ptr %6, align 4, !tbaa !8
  %26 = call i32 @Kit_TruthWordNum_64bit(i32 noundef %25)
  store i32 %26, ptr %10, align 4, !tbaa !8
  %27 = load i32, ptr %8, align 4, !tbaa !8
  %28 = shl i32 1, %27
  %29 = load i32, ptr %7, align 4, !tbaa !8
  %30 = shl i32 1, %29
  %31 = sub nsw i32 %28, %30
  store i32 %31, ptr %12, align 4, !tbaa !8
  store i32 0, ptr %11, align 4, !tbaa !8
  br label %32

32:                                               ; preds = %81, %4
  %33 = load i32, ptr %11, align 4, !tbaa !8
  %34 = load i32, ptr %10, align 4, !tbaa !8
  %35 = icmp slt i32 %33, %34
  br i1 %35, label %36, label %84

36:                                               ; preds = %32
  %37 = load ptr, ptr %5, align 8, !tbaa !3
  %38 = load i32, ptr %11, align 4, !tbaa !8
  %39 = sext i32 %38 to i64
  %40 = getelementptr inbounds i64, ptr %37, i64 %39
  %41 = load i64, ptr %40, align 8, !tbaa !10
  %42 = load i32, ptr %9, align 4, !tbaa !8
  %43 = sext i32 %42 to i64
  %44 = getelementptr inbounds [45 x i64], ptr %13, i64 0, i64 %43
  %45 = load i64, ptr %44, align 8, !tbaa !10
  %46 = and i64 %41, %45
  %47 = load ptr, ptr %5, align 8, !tbaa !3
  %48 = load i32, ptr %11, align 4, !tbaa !8
  %49 = sext i32 %48 to i64
  %50 = getelementptr inbounds i64, ptr %47, i64 %49
  %51 = load i64, ptr %50, align 8, !tbaa !10
  %52 = load i32, ptr %9, align 4, !tbaa !8
  %53 = add nsw i32 %52, 1
  %54 = sext i32 %53 to i64
  %55 = getelementptr inbounds [45 x i64], ptr %13, i64 0, i64 %54
  %56 = load i64, ptr %55, align 8, !tbaa !10
  %57 = and i64 %51, %56
  %58 = load i32, ptr %12, align 4, !tbaa !8
  %59 = zext i32 %58 to i64
  %60 = shl i64 %57, %59
  %61 = add i64 %46, %60
  %62 = load ptr, ptr %5, align 8, !tbaa !3
  %63 = load i32, ptr %11, align 4, !tbaa !8
  %64 = sext i32 %63 to i64
  %65 = getelementptr inbounds i64, ptr %62, i64 %64
  %66 = load i64, ptr %65, align 8, !tbaa !10
  %67 = load i32, ptr %9, align 4, !tbaa !8
  %68 = add nsw i32 %67, 2
  %69 = sext i32 %68 to i64
  %70 = getelementptr inbounds [45 x i64], ptr %13, i64 0, i64 %69
  %71 = load i64, ptr %70, align 8, !tbaa !10
  %72 = and i64 %66, %71
  %73 = load i32, ptr %12, align 4, !tbaa !8
  %74 = zext i32 %73 to i64
  %75 = lshr i64 %72, %74
  %76 = add i64 %61, %75
  %77 = load ptr, ptr %5, align 8, !tbaa !3
  %78 = load i32, ptr %11, align 4, !tbaa !8
  %79 = sext i32 %78 to i64
  %80 = getelementptr inbounds i64, ptr %77, i64 %79
  store i64 %76, ptr %80, align 8, !tbaa !10
  br label %81

81:                                               ; preds = %36
  %82 = load i32, ptr %11, align 4, !tbaa !8
  %83 = add nsw i32 %82, 1
  store i32 %83, ptr %11, align 4, !tbaa !8
  br label %32, !llvm.loop !12

84:                                               ; preds = %32
  call void @llvm.lifetime.end.p0(i64 360, ptr %13) #6
  call void @llvm.lifetime.end.p0(i64 4, ptr %12) #6
  call void @llvm.lifetime.end.p0(i64 4, ptr %11) #6
  call void @llvm.lifetime.end.p0(i64 4, ptr %10) #6
  call void @llvm.lifetime.end.p0(i64 4, ptr %9) #6
  ret void
}