; Function Attrs: nounwind uwtable
define void @swap_ij_case1(ptr noundef captures(none) %0, i32 noundef %1, i32 noundef %2, i32 noundef %3) local_unnamed_addr #0 {
  %5 = tail call i32 @Kit_TruthWordNum_64bit(i32 noundef %1) #5
  %6 = icmp sgt i32 %5, 0
  br i1 %6, label %.lr.ph, label %._crit_edge

.lr.ph:                                           ; preds = %4
  %7 = shl nuw i32 1, %3
  %.neg = shl nsw i32 -1, %2
  %8 = add i32 %7, %.neg
  %9 = sub i32 9, %2
  %10 = mul i32 %9, %2
  %11 = add nsw i32 %10, -2
  %12 = sdiv i32 %11, 2
  %13 = add nsw i32 %12, %3
  %14 = mul nsw i32 %13, 3
  %15 = sext i32 %14 to i64
  %16 = getelementptr inbounds [45 x i64], ptr @__const.swap_ij_case1.maskArray, i64 0, i64 %15
  %17 = load i64, ptr %16, align 8, !tbaa !3
  %18 = add nsw i32 %14, 1
  %19 = sext i32 %18 to i64
  %20 = getelementptr inbounds [45 x i64], ptr @__const.swap_ij_case1.maskArray, i64 0, i64 %19
  %21 = load i64, ptr %20, align 8, !tbaa !3
  %22 = zext i32 %8 to i64
  %23 = add nsw i32 %14, 2
  %24 = sext i32 %23 to i64
  %25 = getelementptr inbounds [45 x i64], ptr @__const.swap_ij_case1.maskArray, i64 0, i64 %24
  %26 = load i64, ptr %25, align 8, !tbaa !3
  %wide.trip.count = zext nneg i32 %5 to i64
  br label %27

27:                                               ; preds = %.lr.ph, %27
  %indvars.iv = phi i64 [ 0, %.lr.ph ], [ %indvars.iv.next, %27 ]
  %28 = getelementptr inbounds nuw i64, ptr %0, i64 %indvars.iv
  %29 = load i64, ptr %28, align 8, !tbaa !3
  %30 = and i64 %17, %29
  %31 = and i64 %21, %29
  %32 = shl i64 %31, %22
  %33 = add i64 %32, %30
  %34 = and i64 %26, %29
  %35 = lshr i64 %34, %22
  %36 = add i64 %33, %35
  store i64 %36, ptr %28, align 8, !tbaa !3
  %indvars.iv.next = add nuw nsw i64 %indvars.iv, 1
  %exitcond.not = icmp eq i64 %indvars.iv.next, %wide.trip.count
  br i1 %exitcond.not, label %._crit_edge, label %27, !llvm.loop !7

._crit_edge:                                      ; preds = %27, %4
  ret void
}